; Function Attrs: nofree norecurse nosync nounwind memory(readwrite, inaccessiblemem: none) uwtable
define internal void @ff_tx_fft262144_ns_float_c(ptr readnone captures(none) %0, ptr noundef initializes((0, 128)) %1, ptr noundef readonly captures(none) %2, i64 %3) #10 {
  tail call void @ff_tx_fft65536_ns_float_c(ptr readnone poison, ptr noundef %1, ptr noundef readonly %2, i64 poison)
  %5 = getelementptr inbounds nuw i8, ptr %1, i64 524288
  %6 = getelementptr inbounds nuw i8, ptr %2, i64 524288
  tail call void @ff_tx_fft32768_ns_float_c(ptr readnone poison, ptr noundef nonnull %5, ptr noundef nonnull readonly %6, i64 poison)
  %7 = getelementptr inbounds nuw i8, ptr %1, i64 786432
  %8 = getelementptr inbounds nuw i8, ptr %2, i64 786432
  tail call void @ff_tx_fft32768_ns_float_c(ptr readnone poison, ptr noundef nonnull %7, ptr noundef nonnull readonly %8, i64 poison)
  tail call fastcc void @ff_tx_fft_sr_combine_float_c(ptr noundef %1, ptr noundef nonnull @ff_tx_tab_131072_float, i32 noundef 16384)
  %9 = getelementptr inbounds nuw i8, ptr %1, i64 1048576
  %10 = getelementptr inbounds nuw i8, ptr %2, i64 1048576
  tail call void @ff_tx_fft65536_ns_float_c(ptr poison, ptr noundef nonnull %9, ptr noundef nonnull %10, i64 poison)
  %11 = getelementptr inbounds nuw i8, ptr %1, i64 1572864
  %12 = getelementptr inbounds nuw i8, ptr %2, i64 1572864
  tail call void @ff_tx_fft65536_ns_float_c(ptr poison, ptr noundef nonnull %11, ptr noundef nonnull %12, i64 poison)
  tail call fastcc void @ff_tx_fft_sr_combine_float_c(ptr noundef %1, ptr noundef nonnull @ff_tx_tab_262144_float, i32 noundef 32768)
  ret void
}